(iomr_classes
Sheet
p0
(dp1
S'width'
p2
I2483
sS'height'
p3
I3513
sS'staff'
p4
(iomr_classes
Staff
p5
(dp6
S'lineThickness'
p7
I3
sS'tops'
p8
(lp9
I629
aI865
aI1236
aI1480
aI1807
aI2043
aI2427
aI2661
asS'lineSpacing'
p10
I20
sbsb.